target datalayout = "e-m:e-p270:32:32-p271:32:32-p272:64:64-i64:64-i128:128-f80:128-n8:16:32:64-S128"
target triple = "x86_64-pc-linux-gnu"

%struct._exr_decode_pipeline = type { i64, ptr, i16, i16, i32, ptr, %struct.exr_chunk_info_t, i32, i32, i64, ptr, ptr, i64, ptr, i64, ptr, i64, ptr, i64, ptr, i64, ptr, i64, ptr, ptr, ptr, ptr, ptr, ptr, [5 x %struct.exr_coding_channel_info_t] }
%struct.exr_chunk_info_t = type { i32, i32, i32, i32, i32, i8, i8, i8, i8, i64, i64, i64, i64, i64 }
%struct.exr_coding_channel_info_t = type { ptr, i32, i32, i32, i32, i8, i8, i16, i16, i16, i32, i32, %union.anon }
%union.anon = type { ptr }

; Function Attrs: nounwind uwtable
define internal i32 @unpack_16bit(ptr noundef %0) #0 {
  %2 = alloca ptr, align 8
  %3 = alloca ptr, align 8
  %4 = alloca ptr, align 8
  %5 = alloca i32, align 4
  %6 = alloca i32, align 4
  %7 = alloca i32, align 4
  %8 = alloca i32, align 4
  %9 = alloca ptr, align 8
  %10 = alloca i32, align 4
  %11 = alloca i32, align 4
  %12 = alloca i32, align 4
  %13 = alloca ptr, align 8
  %14 = alloca ptr, align 8
  %15 = alloca i32, align 4
  store ptr %0, ptr %2, align 8, !tbaa !3
  call void @llvm.lifetime.start.p0(i64 8, ptr %3) #6
  %16 = load ptr, ptr %2, align 8, !tbaa !3
  %17 = getelementptr inbounds nuw %struct._exr_decode_pipeline, ptr %16, i32 0, i32 13
  %18 = load ptr, ptr %17, align 8, !tbaa !19
  store ptr %18, ptr %3, align 8, !tbaa !20
  call void @llvm.lifetime.start.p0(i64 8, ptr %4) #6
  call void @llvm.lifetime.start.p0(i64 4, ptr %5) #6
  call void @llvm.lifetime.start.p0(i64 4, ptr %6) #6
  call void @llvm.lifetime.start.p0(i64 4, ptr %7) #6
  %19 = load ptr, ptr %2, align 8, !tbaa !3
  %20 = getelementptr inbounds nuw %struct._exr_decode_pipeline, ptr %19, i32 0, i32 6
  %21 = getelementptr inbounds nuw %struct.exr_chunk_info_t, ptr %20, i32 0, i32 3
  %22 = load i32, ptr %21, align 4, !tbaa !25
  %23 = load ptr, ptr %2, align 8, !tbaa !3
  %24 = getelementptr inbounds nuw %struct._exr_decode_pipeline, ptr %23, i32 0, i32 8
  %25 = load i32, ptr %24, align 4, !tbaa !26
  %26 = sub nsw i32 %22, %25
  store i32 %26, ptr %6, align 4, !tbaa !8
  call void @llvm.lifetime.start.p0(i64 4, ptr %8) #6
  store i32 0, ptr %8, align 4, !tbaa !8
  br label %27

27:                                               ; preds = %53, %1
  %28 = load i32, ptr %8, align 4, !tbaa !8
  %29 = load ptr, ptr %2, align 8, !tbaa !3
  %30 = getelementptr inbounds nuw %struct._exr_decode_pipeline, ptr %29, i32 0, i32 2
  %31 = load i16, ptr %30, align 8, !tbaa !18
  %32 = sext i16 %31 to i32
  %33 = icmp slt i32 %28, %32
  br i1 %33, label %35, label %34

34:                                               ; preds = %27
  call void @llvm.lifetime.end.p0(i64 4, ptr %8) #6
  br label %56

35:                                               ; preds = %27
  call void @llvm.lifetime.start.p0(i64 8, ptr %9) #6
  %36 = load ptr, ptr %2, align 8, !tbaa !3
  %37 = getelementptr inbounds nuw %struct._exr_decode_pipeline, ptr %36, i32 0, i32 1
  %38 = load ptr, ptr %37, align 8, !tbaa !28
  %39 = load i32, ptr %8, align 4, !tbaa !8
  %40 = sext i32 %39 to i64
  %41 = getelementptr inbounds %struct.exr_coding_channel_info_t, ptr %38, i64 %40
  store ptr %41, ptr %9, align 8, !tbaa !29
  %42 = load ptr, ptr %9, align 8, !tbaa !29
  %43 = getelementptr inbounds nuw %struct.exr_coding_channel_info_t, ptr %42, i32 0, i32 2
  %44 = load i32, ptr %43, align 4, !tbaa !72
  %45 = load ptr, ptr %2, align 8, !tbaa !3
  %46 = getelementptr inbounds nuw %struct._exr_decode_pipeline, ptr %45, i32 0, i32 7
  %47 = load i32, ptr %46, align 8, !tbaa !27
  %48 = mul nsw i32 %44, %47
  %49 = mul nsw i32 %48, 2
  %50 = load ptr, ptr %3, align 8, !tbaa !20
  %51 = sext i32 %49 to i64
  %52 = getelementptr inbounds i8, ptr %50, i64 %51
  store ptr %52, ptr %3, align 8, !tbaa !20
  call void @llvm.lifetime.end.p0(i64 8, ptr %9) #6
  br label %53

53:                                               ; preds = %35
  %54 = load i32, ptr %8, align 4, !tbaa !8
  %55 = add nsw i32 %54, 1
  store i32 %55, ptr %8, align 4, !tbaa !8
  br label %27, !llvm.loop !119

56:                                               ; preds = %34
  %57 = load ptr, ptr %2, align 8, !tbaa !3
  %58 = getelementptr inbounds nuw %struct._exr_decode_pipeline, ptr %57, i32 0, i32 7
  %59 = load i32, ptr %58, align 8, !tbaa !27
  %60 = load i32, ptr %6, align 4, !tbaa !8
  %61 = sub nsw i32 %60, %59
  store i32 %61, ptr %6, align 4, !tbaa !8
  call void @llvm.lifetime.start.p0(i64 4, ptr %10) #6
  store i32 0, ptr %10, align 4, !tbaa !8
  br label %62

62:                                               ; preds = %139, %56
  %63 = load i32, ptr %10, align 4, !tbaa !8
  %64 = load i32, ptr %6, align 4, !tbaa !8
  %65 = icmp slt i32 %63, %64
  br i1 %65, label %67, label %66

66:                                               ; preds = %62
  store i32 5, ptr %11, align 4
  call void @llvm.lifetime.end.p0(i64 4, ptr %10) #6
  br label %142

67:                                               ; preds = %62
  call void @llvm.lifetime.start.p0(i64 4, ptr %12) #6
  store i32 0, ptr %12, align 4, !tbaa !8
  br label %68

68:                                               ; preds = %135, %67
  %69 = load i32, ptr %12, align 4, !tbaa !8
  %70 = load ptr, ptr %2, align 8, !tbaa !3
  %71 = getelementptr inbounds nuw %struct._exr_decode_pipeline, ptr %70, i32 0, i32 2
  %72 = load i16, ptr %71, align 8, !tbaa !18
  %73 = sext i16 %72 to i32
  %74 = icmp slt i32 %69, %73
  br i1 %74, label %76, label %75

75:                                               ; preds = %68
  store i32 8, ptr %11, align 4
  call void @llvm.lifetime.end.p0(i64 4, ptr %12) #6
  br label %138

76:                                               ; preds = %68
  call void @llvm.lifetime.start.p0(i64 8, ptr %13) #6
  %77 = load ptr, ptr %2, align 8, !tbaa !3
  %78 = getelementptr inbounds nuw %struct._exr_decode_pipeline, ptr %77, i32 0, i32 1
  %79 = load ptr, ptr %78, align 8, !tbaa !28
  %80 = load i32, ptr %12, align 4, !tbaa !8
  %81 = sext i32 %80 to i64
  %82 = getelementptr inbounds %struct.exr_coding_channel_info_t, ptr %79, i64 %81
  store ptr %82, ptr %13, align 8, !tbaa !29
  %83 = load ptr, ptr %13, align 8, !tbaa !29
  %84 = getelementptr inbounds nuw %struct.exr_coding_channel_info_t, ptr %83, i32 0, i32 12
  %85 = load ptr, ptr %84, align 8, !tbaa !10
  store ptr %85, ptr %4, align 8, !tbaa !20
  %86 = load ptr, ptr %13, align 8, !tbaa !29
  %87 = getelementptr inbounds nuw %struct.exr_coding_channel_info_t, ptr %86, i32 0, i32 2
  %88 = load i32, ptr %87, align 4, !tbaa !72
  store i32 %88, ptr %5, align 4, !tbaa !8
  %89 = load ptr, ptr %13, align 8, !tbaa !29
  %90 = getelementptr inbounds nuw %struct.exr_coding_channel_info_t, ptr %89, i32 0, i32 10
  %91 = load i32, ptr %90, align 8, !tbaa !38
  store i32 %91, ptr %7, align 4, !tbaa !8
  %92 = load i32, ptr %10, align 4, !tbaa !8
  %93 = sext i32 %92 to i64
  %94 = load ptr, ptr %13, align 8, !tbaa !29
  %95 = getelementptr inbounds nuw %struct.exr_coding_channel_info_t, ptr %94, i32 0, i32 11
  %96 = load i32, ptr %95, align 4, !tbaa !37
  %97 = sext i32 %96 to i64
  %98 = mul i64 %93, %97
  %99 = load ptr, ptr %4, align 8, !tbaa !20
  %100 = getelementptr inbounds nuw i8, ptr %99, i64 %98
  store ptr %100, ptr %4, align 8, !tbaa !20
  %101 = load i32, ptr %7, align 4, !tbaa !8
  %102 = icmp eq i32 %101, 2
  br i1 %102, label %103, label %109

103:                                              ; preds = %76
  %104 = load ptr, ptr %4, align 8, !tbaa !20
  %105 = load ptr, ptr %3, align 8, !tbaa !20
  %106 = load i32, ptr %5, align 4, !tbaa !8
  %107 = sext i32 %106 to i64
  %108 = mul i64 %107, 2
  call void @llvm.memcpy.p0.p0.i64(ptr align 1 %104, ptr align 1 %105, i64 %108, i1 false)
  br label %129

109:                                              ; preds = %76
  call void @llvm.lifetime.start.p0(i64 8, ptr %14) #6
  %110 = load ptr, ptr %3, align 8, !tbaa !20
  store ptr %110, ptr %14, align 8, !tbaa !42
  call void @llvm.lifetime.start.p0(i64 4, ptr %15) #6
  store i32 0, ptr %15, align 4, !tbaa !8
  br label %111

111:                                              ; preds = %125, %109
  %112 = load i32, ptr %15, align 4, !tbaa !8
  %113 = load i32, ptr %5, align 4, !tbaa !8
  %114 = icmp slt i32 %112, %113
  br i1 %114, label %116, label %115

115:                                              ; preds = %111
  store i32 11, ptr %11, align 4
  call void @llvm.lifetime.end.p0(i64 4, ptr %15) #6
  br label %128

116:                                              ; preds = %111
  %117 = load ptr, ptr %14, align 8, !tbaa !42
  %118 = getelementptr inbounds nuw i16, ptr %117, i32 1
  store ptr %118, ptr %14, align 8, !tbaa !42
  %119 = load i16, ptr %117, align 2, !tbaa !44
  %120 = load ptr, ptr %4, align 8, !tbaa !20
  store i16 %119, ptr %120, align 2, !tbaa !44
  %121 = load i32, ptr %7, align 4, !tbaa !8
  %122 = load ptr, ptr %4, align 8, !tbaa !20
  %123 = sext i32 %121 to i64
  %124 = getelementptr inbounds i8, ptr %122, i64 %123
  store ptr %124, ptr %4, align 8, !tbaa !20
  br label %125

125:                                              ; preds = %116
  %126 = load i32, ptr %15, align 4, !tbaa !8
  %127 = add nsw i32 %126, 1
  store i32 %127, ptr %15, align 4, !tbaa !8
  br label %111, !llvm.loop !120

128:                                              ; preds = %115
  call void @llvm.lifetime.end.p0(i64 8, ptr %14) #6
  br label %129

129:                                              ; preds = %128, %103
  %130 = load i32, ptr %5, align 4, !tbaa !8
  %131 = mul nsw i32 %130, 2
  %132 = load ptr, ptr %3, align 8, !tbaa !20
  %133 = sext i32 %131 to i64
  %134 = getelementptr inbounds i8, ptr %132, i64 %133
  store ptr %134, ptr %3, align 8, !tbaa !20
  call void @llvm.lifetime.end.p0(i64 8, ptr %13) #6
  br label %135

135:                                              ; preds = %129
  %136 = load i32, ptr %12, align 4, !tbaa !8
  %137 = add nsw i32 %136, 1
  store i32 %137, ptr %12, align 4, !tbaa !8
  br label %68, !llvm.loop !121

138:                                              ; preds = %75
  br label %139

139:                                              ; preds = %138
  %140 = load i32, ptr %10, align 4, !tbaa !8
  %141 = add nsw i32 %140, 1
  store i32 %141, ptr %10, align 4, !tbaa !8
  br label %62, !llvm.loop !122

142:                                              ; preds = %66
  store i32 1, ptr %11, align 4
  call void @llvm.lifetime.end.p0(i64 4, ptr %7) #6
  call void @llvm.lifetime.end.p0(i64 4, ptr %6) #6
  call void @llvm.lifetime.end.p0(i64 4, ptr %5) #6
  call void @llvm.lifetime.end.p0(i64 8, ptr %4) #6
  call void @llvm.lifetime.end.p0(i64 8, ptr %3) #6
  ret i32 0
}