; Function Attrs: nofree norecurse nosync nounwind memory(readwrite, inaccessiblemem: none) uwtable
define internal noundef i32 @unpack_16bit(ptr noundef readonly captures(none) %0) #1 {
  %2 = getelementptr inbounds nuw i8, ptr %0, i64 136
  %3 = load ptr, ptr %2, align 8, !tbaa !21
  %4 = getelementptr inbounds nuw i8, ptr %0, i64 44
  %5 = load i32, ptr %4, align 4, !tbaa !16
  %6 = getelementptr inbounds nuw i8, ptr %0, i64 100
  %7 = load i32, ptr %6, align 4, !tbaa !17
  %8 = getelementptr inbounds nuw i8, ptr %0, i64 16
  %9 = load i16, ptr %8, align 8, !tbaa !15
  %10 = icmp sgt i16 %9, 0
  br i1 %10, label %.lr.ph, label %.._crit_edge_crit_edge

.._crit_edge_crit_edge:                           ; preds = %1
  %.phi.trans.insert = getelementptr inbounds nuw i8, ptr %0, i64 96
  %.pre = load i32, ptr %.phi.trans.insert, align 8, !tbaa !19
  br label %._crit_edge

.lr.ph:                                           ; preds = %1
  %wide.trip.count = zext nneg i16 %9 to i64
  %11 = getelementptr inbounds nuw i8, ptr %0, i64 8
  %12 = load ptr, ptr %11, align 8, !tbaa !22
  %13 = getelementptr inbounds nuw i8, ptr %0, i64 96
  %14 = load i32, ptr %13, align 8, !tbaa !19
  %factor.op.mul = shl i32 %14, 1
  br label %20

._crit_edge:                                      ; preds = %20, %.._crit_edge_crit_edge
  %15 = phi i32 [ %.pre, %.._crit_edge_crit_edge ], [ %14, %20 ]
  %.041.lcssa = phi ptr [ %3, %.._crit_edge_crit_edge ], [ %24, %20 ]
  %16 = add i32 %7, %15
  %17 = sub i32 %5, %16
  %18 = icmp sgt i32 %17, 0
  br i1 %18, label %.preheader49.lr.ph, label %._crit_edge64

.preheader49.lr.ph:                               ; preds = %._crit_edge
  %19 = getelementptr inbounds nuw i8, ptr %0, i64 8
  %wide.trip.count74 = zext nneg i32 %17 to i64
  br label %.preheader49

20:                                               ; preds = %.lr.ph, %20
  %indvars.iv = phi i64 [ 0, %.lr.ph ], [ %indvars.iv.next, %20 ]
  %.04151 = phi ptr [ %3, %.lr.ph ], [ %24, %20 ]
  %21 = getelementptr inbounds nuw %struct.exr_coding_channel_info_t, ptr %12, i64 %indvars.iv, i32 2
  %22 = load i32, ptr %21, align 4, !tbaa !65
  %.reass = mul i32 %22, %factor.op.mul
  %23 = sext i32 %.reass to i64
  %24 = getelementptr inbounds i8, ptr %.04151, i64 %23
  %indvars.iv.next = add nuw nsw i64 %indvars.iv, 1
  %exitcond.not = icmp eq i64 %indvars.iv.next, %wide.trip.count
  br i1 %exitcond.not, label %._crit_edge, label %20, !llvm.loop !109

.preheader49:                                     ; preds = %.preheader49.lr.ph, %._crit_edge60
  %25 = phi i16 [ %9, %.preheader49.lr.ph ], [ %27, %._crit_edge60 ]
  %indvars.iv71 = phi i64 [ 0, %.preheader49.lr.ph ], [ %indvars.iv.next72, %._crit_edge60 ]
  %.163 = phi ptr [ %.041.lcssa, %.preheader49.lr.ph ], [ %.2.lcssa, %._crit_edge60 ]
  %26 = icmp sgt i16 %25, 0
  br i1 %26, label %.lr.ph59, label %._crit_edge60

._crit_edge64:                                    ; preds = %._crit_edge60, %._crit_edge
  ret i32 0

._crit_edge60:                                    ; preds = %.loopexit, %.preheader49
  %27 = phi i16 [ %25, %.preheader49 ], [ %55, %.loopexit ]
  %.2.lcssa = phi ptr [ %.163, %.preheader49 ], [ %54, %.loopexit ]
  %indvars.iv.next72 = add nuw nsw i64 %indvars.iv71, 1
  %exitcond75.not = icmp eq i64 %indvars.iv.next72, %wide.trip.count74
  br i1 %exitcond75.not, label %._crit_edge64, label %.preheader49, !llvm.loop !110

.lr.ph59:                                         ; preds = %.preheader49, %.loopexit
  %indvars.iv68 = phi i64 [ %indvars.iv.next69, %.loopexit ], [ 0, %.preheader49 ]
  %.257 = phi ptr [ %54, %.loopexit ], [ %.163, %.preheader49 ]
  %28 = load ptr, ptr %19, align 8, !tbaa !22
  %29 = getelementptr inbounds nuw %struct.exr_coding_channel_info_t, ptr %28, i64 %indvars.iv68
  %30 = getelementptr inbounds nuw i8, ptr %29, i64 40
  %31 = load ptr, ptr %30, align 8, !tbaa !3
  %32 = getelementptr inbounds nuw i8, ptr %29, i64 12
  %33 = load i32, ptr %32, align 4, !tbaa !65
  %34 = getelementptr inbounds nuw i8, ptr %29, i64 32
  %35 = load i32, ptr %34, align 8, !tbaa !31
  %36 = getelementptr inbounds nuw i8, ptr %29, i64 36
  %37 = load i32, ptr %36, align 4, !tbaa !32
  %38 = sext i32 %37 to i64
  %39 = mul nsw i64 %indvars.iv71, %38
  %40 = getelementptr inbounds nuw i8, ptr %31, i64 %39
  %41 = icmp eq i32 %35, 2
  br i1 %41, label %44, label %.preheader

.preheader:                                       ; preds = %.lr.ph59
  %42 = icmp sgt i32 %33, 0
  br i1 %42, label %.lr.ph55, label %.loopexit

.lr.ph55:                                         ; preds = %.preheader
  %43 = sext i32 %35 to i64
  br label %47

44:                                               ; preds = %.lr.ph59
  %45 = sext i32 %33 to i64
  %46 = shl nsw i64 %45, 1
  tail call void @llvm.memcpy.p0.p0.i64(ptr align 1 %40, ptr align 1 %.257, i64 %46, i1 false)
  br label %.loopexit

47:                                               ; preds = %.lr.ph55, %47
  %.054 = phi i32 [ 0, %.lr.ph55 ], [ %51, %47 ]
  %.04053 = phi ptr [ %.257, %.lr.ph55 ], [ %48, %47 ]
  %.04452 = phi ptr [ %40, %.lr.ph55 ], [ %50, %47 ]
  %48 = getelementptr inbounds nuw i8, ptr %.04053, i64 2
  %49 = load i16, ptr %.04053, align 2, !tbaa !36
  store i16 %49, ptr %.04452, align 2, !tbaa !36
  %50 = getelementptr inbounds i8, ptr %.04452, i64 %43
  %51 = add nuw nsw i32 %.054, 1
  %exitcond67.not = icmp eq i32 %51, %33
  br i1 %exitcond67.not, label %.loopexit, label %47, !llvm.loop !111

.loopexit:                                        ; preds = %47, %.preheader, %44
  %52 = shl nsw i32 %33, 1
  %53 = sext i32 %52 to i64
  %54 = getelementptr inbounds i8, ptr %.257, i64 %53
  %indvars.iv.next69 = add nuw nsw i64 %indvars.iv68, 1
  %55 = load i16, ptr %8, align 8, !tbaa !15
  %56 = sext i16 %55 to i64
  %57 = icmp slt i64 %indvars.iv.next69, %56
  br i1 %57, label %.lr.ph59, label %._crit_edge60, !llvm.loop !112
}